; Function Attrs: mustprogress uwtable
define void @_Z11gmx_barrierP10tmpi_comm_(ptr noundef %0) local_unnamed_addr #0 {
  %2 = icmp eq ptr %0, null
  br i1 %2, label %5, label %3

3:                                                ; preds = %1
  %4 = tail call noundef i32 @_Z12tMPI_BarrierP10tmpi_comm_(ptr noundef nonnull %0)
  br label %5

5:                                                ; preds = %1, %3
  ret void
}